target datalayout = "e-m:e-p270:32:32-p271:32:32-p272:64:64-i64:64-i128:128-f80:128-n8:16:32:64-S128"
target triple = "x86_64-pc-linux-gnu"

%struct.H5S_extent_t = type { %struct.H5O_shared_t, i32, i32, i64, i32, ptr, ptr }
%struct.H5O_shared_t = type { i32, ptr, i32, %union.anon }
%union.anon = type { %struct.H5O_mesg_loc_t }
%struct.H5O_mesg_loc_t = type { i32, i64 }

@H5S_init_g = global i8 0, align 1
@H5_libterm_g = external global i8, align 1
@.str.3 = private unnamed_addr constant [97 x i8] c"generated/home/dtcxzyw/WorkSpace/Projects/compilers/llvm-opt-benchmark/bench/hdf5/hdf5/src/H5S.c\00", align 1
@H5E_FUNC_g = external global i64, align 8
@H5E_CANTINIT_g = external global i64, align 8
@.str.4 = private unnamed_addr constant [32 x i8] c"interface initialization failed\00", align 1
@H5E_DATASPACE_g = external global i64, align 8
@H5E_UNSUPPORTED_g = external global i64, align 8
@.str.25 = private unnamed_addr constant [41 x i8] c"internal error (unknown dataspace class)\00", align 1
@__func__.H5S_extent_get_dims = private unnamed_addr constant [20 x i8] c"H5S_extent_get_dims\00", align 1

; Function Attrs: nounwind uwtable
define i32 @H5S_extent_get_dims(ptr noundef %0, ptr noundef %1, ptr noundef %2) #0 {
  %4 = alloca ptr, align 8
  %5 = alloca ptr, align 8
  %6 = alloca ptr, align 8
  %7 = alloca i32, align 4
  %8 = alloca i32, align 4
  %9 = alloca i8, align 1
  store ptr %0, ptr %4, align 8, !tbaa !29
  store ptr %1, ptr %5, align 8, !tbaa !45
  store ptr %2, ptr %6, align 8, !tbaa !45
  call void @llvm.lifetime.start.p0(i64 4, ptr %7) #7
  call void @llvm.lifetime.start.p0(i64 4, ptr %8) #7
  store i32 -1, ptr %8, align 4, !tbaa !3
  call void @llvm.lifetime.start.p0(i64 1, ptr %9) #7
  store i8 0, ptr %9, align 1, !tbaa !7
  %10 = load i8, ptr @H5S_init_g, align 1, !tbaa !7, !range !9, !noundef !10
  %11 = trunc i8 %10 to i1
  br i1 %11, label %16, label %12

12:                                               ; preds = %3
  %13 = load i8, ptr @H5_libterm_g, align 1, !tbaa !7, !range !9, !noundef !10
  %14 = trunc i8 %13 to i1
  %15 = xor i1 %14, true
  br label %16

16:                                               ; preds = %12, %3
  %17 = phi i1 [ false, %3 ], [ %15, %12 ]
  %18 = xor i1 %17, true
  %19 = xor i1 %18, true
  %20 = zext i1 %19 to i32
  %21 = sext i32 %20 to i64
  %22 = call i64 @llvm.expect.i64(i64 %21, i64 0)
  %23 = icmp ne i64 %22, 0
  br i1 %23, label %24, label %47

24:                                               ; preds = %16
  store i8 1, ptr @H5S_init_g, align 1, !tbaa !7
  %25 = call i32 @H5S__init_package()
  %26 = icmp slt i32 %25, 0
  br i1 %26, label %27, label %46

27:                                               ; preds = %24
  store i8 0, ptr @H5S_init_g, align 1, !tbaa !7
  br label %28

28:                                               ; preds = %27
  br label %29

29:                                               ; preds = %28
  br label %30

30:                                               ; preds = %29
  %31 = load i64, ptr @H5E_FUNC_g, align 8, !tbaa !11
  %32 = load i64, ptr @H5E_CANTINIT_g, align 8, !tbaa !11
  %33 = call i32 (ptr, ptr, i32, i64, i64, ptr, ...) @H5E_printf_stack(ptr noundef @.str.3, ptr noundef @__func__.H5S_extent_get_dims, i32 noundef 952, i64 noundef %31, i64 noundef %32, ptr noundef @.str.4)
  br label %34

34:                                               ; preds = %30
  br label %35

35:                                               ; preds = %34
  store i8 1, ptr %9, align 1, !tbaa !7
  %36 = load i8, ptr %9, align 1, !tbaa !7, !range !9, !noundef !10
  %37 = trunc i8 %36 to i1
  %38 = zext i1 %37 to i8
  store i8 %38, ptr %9, align 1, !tbaa !7
  br label %39

39:                                               ; preds = %35
  br label %40

40:                                               ; preds = %39
  br label %41

41:                                               ; preds = %40
  store i32 -1, ptr %8, align 4, !tbaa !3
  br label %149

42:                                               ; No predecessors!
  br label %43

43:                                               ; preds = %42
  br label %44

44:                                               ; preds = %43
  br label %45

45:                                               ; preds = %44
  br label %46

46:                                               ; preds = %45, %24
  br label %47

47:                                               ; preds = %46, %16
  %48 = load i8, ptr @H5S_init_g, align 1, !tbaa !7, !range !9, !noundef !10
  %49 = trunc i8 %48 to i1
  br i1 %49, label %54, label %50

50:                                               ; preds = %47
  %51 = load i8, ptr @H5_libterm_g, align 1, !tbaa !7, !range !9, !noundef !10
  %52 = trunc i8 %51 to i1
  %53 = xor i1 %52, true
  br label %54

54:                                               ; preds = %50, %47
  %55 = phi i1 [ true, %47 ], [ %53, %50 ]
  %56 = xor i1 %55, true
  %57 = xor i1 %56, true
  %58 = zext i1 %57 to i32
  %59 = sext i32 %58 to i64
  %60 = call i64 @llvm.expect.i64(i64 %59, i64 1)
  %61 = icmp ne i64 %60, 0
  br i1 %61, label %62, label %150

62:                                               ; preds = %54
  %63 = load ptr, ptr %4, align 8, !tbaa !29
  %64 = getelementptr inbounds nuw %struct.H5S_extent_t, ptr %63, i32 0, i32 1
  %65 = load i32, ptr %64, align 8, !tbaa !31
  switch i32 %65, label %129 [
    i32 2, label %66
    i32 0, label %66
    i32 1, label %67
    i32 -1, label %128
  ]

66:                                               ; preds = %62, %62
  store i32 0, ptr %8, align 4, !tbaa !3
  br label %148

67:                                               ; preds = %62
  %68 = load ptr, ptr %4, align 8, !tbaa !29
  %69 = getelementptr inbounds nuw %struct.H5S_extent_t, ptr %68, i32 0, i32 4
  %70 = load i32, ptr %69, align 8, !tbaa !34
  store i32 %70, ptr %8, align 4, !tbaa !3
  store i32 0, ptr %7, align 4, !tbaa !3
  br label %71

71:                                               ; preds = %124, %67
  %72 = load i32, ptr %7, align 4, !tbaa !3
  %73 = load i32, ptr %8, align 4, !tbaa !3
  %74 = icmp slt i32 %72, %73
  br i1 %74, label %75, label %127

75:                                               ; preds = %71
  %76 = load ptr, ptr %5, align 8, !tbaa !45
  %77 = icmp ne ptr %76, null
  br i1 %77, label %78, label %90

78:                                               ; preds = %75
  %79 = load ptr, ptr %4, align 8, !tbaa !29
  %80 = getelementptr inbounds nuw %struct.H5S_extent_t, ptr %79, i32 0, i32 5
  %81 = load ptr, ptr %80, align 8, !tbaa !32
  %82 = load i32, ptr %7, align 4, !tbaa !3
  %83 = sext i32 %82 to i64
  %84 = getelementptr inbounds i64, ptr %81, i64 %83
  %85 = load i64, ptr %84, align 8, !tbaa !11
  %86 = load ptr, ptr %5, align 8, !tbaa !45
  %87 = load i32, ptr %7, align 4, !tbaa !3
  %88 = sext i32 %87 to i64
  %89 = getelementptr inbounds i64, ptr %86, i64 %88
  store i64 %85, ptr %89, align 8, !tbaa !11
  br label %90

90:                                               ; preds = %78, %75
  %91 = load ptr, ptr %6, align 8, !tbaa !45
  %92 = icmp ne ptr %91, null
  br i1 %92, label %93, label %123

93:                                               ; preds = %90
  %94 = load ptr, ptr %4, align 8, !tbaa !29
  %95 = getelementptr inbounds nuw %struct.H5S_extent_t, ptr %94, i32 0, i32 6
  %96 = load ptr, ptr %95, align 8, !tbaa !33
  %97 = icmp ne ptr %96, null
  br i1 %97, label %98, label %110

98:                                               ; preds = %93
  %99 = load ptr, ptr %4, align 8, !tbaa !29
  %100 = getelementptr inbounds nuw %struct.H5S_extent_t, ptr %99, i32 0, i32 6
  %101 = load ptr, ptr %100, align 8, !tbaa !33
  %102 = load i32, ptr %7, align 4, !tbaa !3
  %103 = sext i32 %102 to i64
  %104 = getelementptr inbounds i64, ptr %101, i64 %103
  %105 = load i64, ptr %104, align 8, !tbaa !11
  %106 = load ptr, ptr %6, align 8, !tbaa !45
  %107 = load i32, ptr %7, align 4, !tbaa !3
  %108 = sext i32 %107 to i64
  %109 = getelementptr inbounds i64, ptr %106, i64 %108
  store i64 %105, ptr %109, align 8, !tbaa !11
  br label %122

110:                                              ; preds = %93
  %111 = load ptr, ptr %4, align 8, !tbaa !29
  %112 = getelementptr inbounds nuw %struct.H5S_extent_t, ptr %111, i32 0, i32 5
  %113 = load ptr, ptr %112, align 8, !tbaa !32
  %114 = load i32, ptr %7, align 4, !tbaa !3
  %115 = sext i32 %114 to i64
  %116 = getelementptr inbounds i64, ptr %113, i64 %115
  %117 = load i64, ptr %116, align 8, !tbaa !11
  %118 = load ptr, ptr %6, align 8, !tbaa !45
  %119 = load i32, ptr %7, align 4, !tbaa !3
  %120 = sext i32 %119 to i64
  %121 = getelementptr inbounds i64, ptr %118, i64 %120
  store i64 %117, ptr %121, align 8, !tbaa !11
  br label %122

122:                                              ; preds = %110, %98
  br label %123

123:                                              ; preds = %122, %90
  br label %124

124:                                              ; preds = %123
  %125 = load i32, ptr %7, align 4, !tbaa !3
  %126 = add nsw i32 %125, 1
  store i32 %126, ptr %7, align 4, !tbaa !3
  br label %71, !llvm.loop !46

127:                                              ; preds = %71
  br label %148

128:                                              ; preds = %62
  br label %129

129:                                              ; preds = %62, %128
  br label %130

130:                                              ; preds = %129
  br label %131

131:                                              ; preds = %130
  br label %132

132:                                              ; preds = %131
  %133 = load i64, ptr @H5E_DATASPACE_g, align 8, !tbaa !11
  %134 = load i64, ptr @H5E_UNSUPPORTED_g, align 8, !tbaa !11
  %135 = call i32 (ptr, ptr, i32, i64, i64, ptr, ...) @H5E_printf_stack(ptr noundef @.str.3, ptr noundef @__func__.H5S_extent_get_dims, i32 noundef 980, i64 noundef %133, i64 noundef %134, ptr noundef @.str.25)
  br label %136

136:                                              ; preds = %132
  br label %137

137:                                              ; preds = %136
  store i8 1, ptr %9, align 1, !tbaa !7
  %138 = load i8, ptr %9, align 1, !tbaa !7, !range !9, !noundef !10
  %139 = trunc i8 %138 to i1
  %140 = zext i1 %139 to i8
  store i8 %140, ptr %9, align 1, !tbaa !7
  br label %141

141:                                              ; preds = %137
  br label %142

142:                                              ; preds = %141
  br label %143

143:                                              ; preds = %142
  store i32 -1, ptr %8, align 4, !tbaa !3
  br label %149

144:                                              ; No predecessors!
  br label %145

145:                                              ; preds = %144
  br label %146

146:                                              ; preds = %145
  br label %147

147:                                              ; preds = %146
  br label %148

148:                                              ; preds = %147, %127, %66
  br label %149

149:                                              ; preds = %148, %143, %41
  br label %150

150:                                              ; preds = %149, %54
  %151 = load i32, ptr %8, align 4, !tbaa !3
  call void @llvm.lifetime.end.p0(i64 1, ptr %9) #7
  call void @llvm.lifetime.end.p0(i64 4, ptr %8) #7
  call void @llvm.lifetime.end.p0(i64 4, ptr %7) #7
  ret i32 %151
}