; Function Attrs: nounwind uwtable
define i32 @H5S_extent_get_dims(ptr noundef readonly captures(none) %0, ptr noundef writeonly captures(address_is_null) %1, ptr noundef writeonly captures(address_is_null) %2) local_unnamed_addr #0 {
  %4 = load i8, ptr @H5S_init_g, align 1, !tbaa !3, !range !7, !noundef !8
  %5 = trunc nuw i8 %4 to i1
  %6 = load i8, ptr @H5_libterm_g, align 1, !range !7
  %7 = trunc nuw i8 %6 to i1
  %8 = select i1 %5, i1 true, i1 %7
  br i1 %8, label %16, label %9, !prof !9

9:                                                ; preds = %3
  store i8 1, ptr @H5S_init_g, align 1, !tbaa !3
  %10 = tail call i32 @H5S__init_package()
  %11 = icmp slt i32 %10, 0
  br i1 %11, label %12, label %._crit_edge

._crit_edge:                                      ; preds = %9
  %.pre = load i8, ptr @H5S_init_g, align 1, !tbaa !3, !range !7
  %.pre58 = load i8, ptr @H5_libterm_g, align 1, !range !7
  %.pre59 = trunc nuw i8 %.pre to i1
  %.pre60 = trunc nuw i8 %.pre58 to i1
  br label %16

12:                                               ; preds = %9
  store i8 0, ptr @H5S_init_g, align 1, !tbaa !3
  %13 = load i64, ptr @H5E_FUNC_g, align 8, !tbaa !10
  %14 = load i64, ptr @H5E_CANTINIT_g, align 8, !tbaa !10
  %15 = tail call i32 (ptr, ptr, i32, i64, i64, ptr, ...) @H5E_printf_stack(ptr noundef nonnull @.str.3, ptr noundef nonnull @__func__.H5S_extent_get_dims, i32 noundef 952, i64 noundef %13, i64 noundef %14, ptr noundef nonnull @.str.4) #10
  br label %.loopexit

16:                                               ; preds = %._crit_edge, %3
  %.pre-phi61 = phi i1 [ %.pre60, %._crit_edge ], [ %7, %3 ]
  %.pre-phi = phi i1 [ %.pre59, %._crit_edge ], [ %5, %3 ]
  %17 = xor i1 %.pre-phi61, true
  %18 = select i1 %.pre-phi, i1 true, i1 %17
  br i1 %18, label %19, label %.loopexit, !prof !9

19:                                               ; preds = %16
  %20 = getelementptr inbounds nuw i8, ptr %0, i64 40
  %21 = load i32, ptr %20, align 8, !tbaa !26
  switch i32 %21, label %53 [
    i32 2, label %.loopexit
    i32 0, label %.loopexit
    i32 1, label %22
  ]

22:                                               ; preds = %19
  %23 = getelementptr inbounds nuw i8, ptr %0, i64 56
  %24 = load i32, ptr %23, align 8, !tbaa !29
  %25 = icmp sgt i32 %24, 0
  br i1 %25, label %.lr.ph, label %.loopexit

.lr.ph:                                           ; preds = %22
  %.not = icmp eq ptr %1, null
  %26 = getelementptr inbounds nuw i8, ptr %0, i64 64
  %.not27 = icmp eq ptr %2, null
  br i1 %.not27, label %.lr.ph.split.us, label %.lr.ph.split

.lr.ph.split.us:                                  ; preds = %.lr.ph
  br i1 %.not, label %.loopexit, label %.lr.ph.split.us.split

.lr.ph.split.us.split:                            ; preds = %.lr.ph.split.us
  %27 = load ptr, ptr %26, align 8, !tbaa !27
  %wide.trip.count56 = zext nneg i32 %24 to i64
  br label %28

28:                                               ; preds = %28, %.lr.ph.split.us.split
  %indvars.iv53 = phi i64 [ %indvars.iv.next54, %28 ], [ 0, %.lr.ph.split.us.split ]
  %29 = getelementptr inbounds nuw i64, ptr %27, i64 %indvars.iv53
  %30 = load i64, ptr %29, align 8, !tbaa !10
  %31 = getelementptr inbounds nuw i64, ptr %1, i64 %indvars.iv53
  store i64 %30, ptr %31, align 8, !tbaa !10
  %indvars.iv.next54 = add nuw nsw i64 %indvars.iv53, 1
  %exitcond57.not = icmp eq i64 %indvars.iv.next54, %wide.trip.count56
  br i1 %exitcond57.not, label %.loopexit, label %28, !llvm.loop !46

.lr.ph.split:                                     ; preds = %.lr.ph
  %32 = getelementptr inbounds nuw i8, ptr %0, i64 72
  %33 = load ptr, ptr %32, align 8, !tbaa !28
  %.not28 = icmp eq ptr %33, null
  br i1 %.not28, label %.lr.ph.split.split.us, label %.lr.ph.split.split

.lr.ph.split.split.us:                            ; preds = %.lr.ph.split
  %34 = load ptr, ptr %26, align 8, !tbaa !27
  %wide.trip.count51 = zext nneg i32 %24 to i64
  br i1 %.not, label %.lr.ph.split.split.us.split.us, label %.lr.ph.split.split.us.split

.lr.ph.split.split.us.split.us:                   ; preds = %.lr.ph.split.split.us, %.lr.ph.split.split.us.split.us
  %indvars.iv48 = phi i64 [ %indvars.iv.next49, %.lr.ph.split.split.us.split.us ], [ 0, %.lr.ph.split.split.us ]
  %35 = getelementptr inbounds nuw i64, ptr %34, i64 %indvars.iv48
  %36 = load i64, ptr %35, align 8, !tbaa !10
  %37 = getelementptr inbounds nuw i64, ptr %2, i64 %indvars.iv48
  store i64 %36, ptr %37, align 8, !tbaa !10
  %indvars.iv.next49 = add nuw nsw i64 %indvars.iv48, 1
  %exitcond52.not = icmp eq i64 %indvars.iv.next49, %wide.trip.count51
  br i1 %exitcond52.not, label %.loopexit, label %.lr.ph.split.split.us.split.us, !llvm.loop !46

.lr.ph.split.split.us.split:                      ; preds = %.lr.ph.split.split.us, %.lr.ph.split.split.us.split
  %indvars.iv43 = phi i64 [ %indvars.iv.next44, %.lr.ph.split.split.us.split ], [ 0, %.lr.ph.split.split.us ]
  %38 = getelementptr inbounds nuw i64, ptr %34, i64 %indvars.iv43
  %39 = load i64, ptr %38, align 8, !tbaa !10
  %40 = getelementptr inbounds nuw i64, ptr %1, i64 %indvars.iv43
  store i64 %39, ptr %40, align 8, !tbaa !10
  %41 = getelementptr inbounds nuw i64, ptr %2, i64 %indvars.iv43
  store i64 %39, ptr %41, align 8, !tbaa !10
  %indvars.iv.next44 = add nuw nsw i64 %indvars.iv43, 1
  %exitcond47.not = icmp eq i64 %indvars.iv.next44, %wide.trip.count51
  br i1 %exitcond47.not, label %.loopexit, label %.lr.ph.split.split.us.split, !llvm.loop !46

.lr.ph.split.split:                               ; preds = %.lr.ph.split
  br i1 %.not, label %.lr.ph.split.split.split.us.preheader, label %.lr.ph.split.split.split

.lr.ph.split.split.split.us.preheader:            ; preds = %.lr.ph.split.split
  %wide.trip.count41 = zext nneg i32 %24 to i64
  br label %.lr.ph.split.split.split.us

.lr.ph.split.split.split.us:                      ; preds = %.lr.ph.split.split.split.us.preheader, %.lr.ph.split.split.split.us
  %indvars.iv38 = phi i64 [ 0, %.lr.ph.split.split.split.us.preheader ], [ %indvars.iv.next39, %.lr.ph.split.split.split.us ]
  %42 = getelementptr inbounds nuw i64, ptr %33, i64 %indvars.iv38
  %43 = load i64, ptr %42, align 8, !tbaa !10
  %44 = getelementptr inbounds nuw i64, ptr %2, i64 %indvars.iv38
  store i64 %43, ptr %44, align 8, !tbaa !10
  %indvars.iv.next39 = add nuw nsw i64 %indvars.iv38, 1
  %exitcond42.not = icmp eq i64 %indvars.iv.next39, %wide.trip.count41
  br i1 %exitcond42.not, label %.loopexit, label %.lr.ph.split.split.split.us, !llvm.loop !46

.lr.ph.split.split.split:                         ; preds = %.lr.ph.split.split
  %45 = load ptr, ptr %26, align 8, !tbaa !27
  %wide.trip.count = zext nneg i32 %24 to i64
  br label %46

46:                                               ; preds = %.lr.ph.split.split.split, %46
  %indvars.iv = phi i64 [ 0, %.lr.ph.split.split.split ], [ %indvars.iv.next, %46 ]
  %47 = getelementptr inbounds nuw i64, ptr %45, i64 %indvars.iv
  %48 = load i64, ptr %47, align 8, !tbaa !10
  %49 = getelementptr inbounds nuw i64, ptr %1, i64 %indvars.iv
  store i64 %48, ptr %49, align 8, !tbaa !10
  %50 = getelementptr inbounds nuw i64, ptr %33, i64 %indvars.iv
  %51 = load i64, ptr %50, align 8, !tbaa !10
  %52 = getelementptr inbounds nuw i64, ptr %2, i64 %indvars.iv
  store i64 %51, ptr %52, align 8, !tbaa !10
  %indvars.iv.next = add nuw nsw i64 %indvars.iv, 1
  %exitcond.not = icmp eq i64 %indvars.iv.next, %wide.trip.count
  br i1 %exitcond.not, label %.loopexit, label %46, !llvm.loop !46

53:                                               ; preds = %19
  %54 = load i64, ptr @H5E_DATASPACE_g, align 8, !tbaa !10
  %55 = load i64, ptr @H5E_UNSUPPORTED_g, align 8, !tbaa !10
  %56 = tail call i32 (ptr, ptr, i32, i64, i64, ptr, ...) @H5E_printf_stack(ptr noundef nonnull @.str.3, ptr noundef nonnull @__func__.H5S_extent_get_dims, i32 noundef 980, i64 noundef %54, i64 noundef %55, ptr noundef nonnull @.str.25) #10
  br label %.loopexit

.loopexit:                                        ; preds = %46, %.lr.ph.split.split.split.us, %.lr.ph.split.split.us.split, %.lr.ph.split.split.us.split.us, %28, %.lr.ph.split.us, %22, %19, %19, %12, %53, %16
  %.0 = phi i32 [ -1, %12 ], [ -1, %53 ], [ -1, %16 ], [ 0, %19 ], [ 0, %19 ], [ %24, %22 ], [ %24, %.lr.ph.split.us ], [ %24, %28 ], [ %24, %.lr.ph.split.split.us.split.us ], [ %24, %.lr.ph.split.split.us.split ], [ %24, %.lr.ph.split.split.split.us ], [ %24, %46 ]
  ret i32 %.0
}